target datalayout = "e-m:e-p270:32:32-p271:32:32-p272:64:64-i64:64-i128:128-f80:128-n8:16:32:64-S128"
target triple = "x86_64-pc-linux-gnu"

@ReservedCodeCacheSize = external global i64, align 8
@UseJVMCICompiler = external global i8, align 1
@TypeProfileWidth = external global i64, align 8
@TypeProfileLevel = external global i32, align 4
@UseJVMCINativeLibrary = external global i8, align 1
@CompilerThreadStackSize = external global i64, align 8
@VMThreadStackSize = external global i64, align 8
@InitialCodeCacheSize = external global i64, align 8
@NewSizeThreadIncrease = external global i64, align 8
@Tier3DelayOn = external global i64, align 8

; Function Attrs: mustprogress nounwind uwtable
define linkonce_odr hidden noundef i64 @_Z4MAX2ImET_S0_S0_(i64 noundef %0, i64 noundef %1) #1 comdat {
  %3 = alloca i64, align 8
  %4 = alloca i64, align 8
  store i64 %0, ptr %3, align 8
  store i64 %1, ptr %4, align 8
  %5 = load i64, ptr %3, align 8
  %6 = load i64, ptr %4, align 8
  %7 = icmp ugt i64 %5, %6
  br i1 %7, label %8, label %10

8:                                                ; preds = %2
  %9 = load i64, ptr %3, align 8
  br label %12

10:                                               ; preds = %2
  %11 = load i64, ptr %4, align 8
  br label %12

12:                                               ; preds = %10, %8
  %13 = phi i64 [ %9, %8 ], [ %11, %10 ]
  ret i64 %13
}

; Function Attrs: mustprogress nounwind uwtable
define hidden void @_ZN14CompilerConfig24set_jvmci_specific_flagsEv() #1 align 2 {
  %1 = alloca i32, align 4
  %2 = load i8, ptr @UseJVMCICompiler, align 1
  %3 = trunc i8 %2 to i1
  br i1 %3, label %4, label %52

4:                                                ; preds = %0
  %5 = call noundef zeroext i1 @_ZN7JVMFlag10is_defaultE12JVMFlagsEnum(i32 noundef 770)
  br i1 %5, label %6, label %7

6:                                                ; preds = %4
  store i64 8, ptr @TypeProfileWidth, align 8
  br label %7

7:                                                ; preds = %6, %4
  %8 = call noundef zeroext i1 @_ZN7JVMFlag10is_defaultE12JVMFlagsEnum(i32 noundef 710)
  br i1 %8, label %9, label %10

9:                                                ; preds = %7
  store i32 0, ptr @TypeProfileLevel, align 4
  br label %10

10:                                               ; preds = %9, %7
  %11 = load i8, ptr @UseJVMCINativeLibrary, align 1
  %12 = trunc i8 %11 to i1
  br i1 %12, label %13, label %32

13:                                               ; preds = %10
  %14 = call noundef zeroext i1 @_ZN7JVMFlag10is_defaultE12JVMFlagsEnum(i32 noundef 803)
  br i1 %14, label %15, label %31

15:                                               ; preds = %13
  %16 = load i64, ptr @CompilerThreadStackSize, align 8
  %17 = trunc i64 %16 to i32
  store i32 %17, ptr %1, align 4
  %18 = load i32, ptr %1, align 4
  %19 = icmp eq i32 %18, 0
  br i1 %19, label %20, label %23

20:                                               ; preds = %15
  %21 = load i64, ptr @VMThreadStackSize, align 8
  %22 = trunc i64 %21 to i32
  store i32 %22, ptr %1, align 4
  br label %23

23:                                               ; preds = %20, %15
  %24 = load i32, ptr %1, align 4
  %25 = icmp ne i32 %24, 0
  br i1 %25, label %26, label %30

26:                                               ; preds = %23
  %27 = load i32, ptr %1, align 4
  %28 = mul nsw i32 %27, 2
  %29 = sext i32 %28 to i64
  store i64 %29, ptr @CompilerThreadStackSize, align 8
  br label %30

30:                                               ; preds = %26, %23
  br label %31

31:                                               ; preds = %30, %13
  br label %51

32:                                               ; preds = %10
  %33 = call noundef zeroext i1 @_ZN7JVMFlag10is_defaultE12JVMFlagsEnum(i32 noundef 811)
  br i1 %33, label %34, label %37

34:                                               ; preds = %32
  %35 = load i64, ptr @ReservedCodeCacheSize, align 8
  %36 = call noundef i64 @_Z4MAX2ImET_S0_S0_(i64 noundef 67108864, i64 noundef %35)
  store i64 %36, ptr @ReservedCodeCacheSize, align 8
  br label %37

37:                                               ; preds = %34, %32
  %38 = call noundef zeroext i1 @_ZN7JVMFlag10is_defaultE12JVMFlagsEnum(i32 noundef 808)
  br i1 %38, label %39, label %42

39:                                               ; preds = %37
  %40 = load i64, ptr @InitialCodeCacheSize, align 8
  %41 = call noundef i64 @_Z4MAX2ImET_S0_S0_(i64 noundef 16777216, i64 noundef %40)
  store i64 %41, ptr @InitialCodeCacheSize, align 8
  br label %42

42:                                               ; preds = %39, %37
  %43 = call noundef zeroext i1 @_ZN7JVMFlag10is_defaultE12JVMFlagsEnum(i32 noundef 1201)
  br i1 %43, label %44, label %47

44:                                               ; preds = %42
  %45 = load i64, ptr @NewSizeThreadIncrease, align 8
  %46 = call noundef i64 @_Z4MAX2ImET_S0_S0_(i64 noundef 4096, i64 noundef %45)
  store i64 %46, ptr @NewSizeThreadIncrease, align 8
  br label %47

47:                                               ; preds = %44, %42
  %48 = call noundef zeroext i1 @_ZN7JVMFlag10is_defaultE12JVMFlagsEnum(i32 noundef 411)
  br i1 %48, label %49, label %50

49:                                               ; preds = %47
  store i64 100000, ptr @Tier3DelayOn, align 8
  br label %50

50:                                               ; preds = %49, %47
  br label %51

51:                                               ; preds = %50, %31
  br label %52

52:                                               ; preds = %51, %0
  ret void
}