; Function Attrs: mustprogress nounwind uwtable
define hidden void @_ZN14CompilerConfig24set_jvmci_specific_flagsEv() local_unnamed_addr #0 align 2 {
  %1 = load i8, ptr @UseJVMCICompiler, align 1
  %2 = trunc i8 %1 to i1
  br i1 %2, label %3, label %41

3:                                                ; preds = %0
  %4 = tail call noundef zeroext i1 @_ZN7JVMFlag10is_defaultE12JVMFlagsEnum(i32 noundef 770) #11
  br i1 %4, label %5, label %6

5:                                                ; preds = %3
  store i64 8, ptr @TypeProfileWidth, align 8
  br label %6

6:                                                ; preds = %5, %3
  %7 = tail call noundef zeroext i1 @_ZN7JVMFlag10is_defaultE12JVMFlagsEnum(i32 noundef 710) #11
  br i1 %7, label %8, label %9

8:                                                ; preds = %6
  store i32 0, ptr @TypeProfileLevel, align 4
  br label %9

9:                                                ; preds = %8, %6
  %10 = load i8, ptr @UseJVMCINativeLibrary, align 1
  %11 = trunc i8 %10 to i1
  br i1 %11, label %12, label %23

12:                                               ; preds = %9
  %13 = tail call noundef zeroext i1 @_ZN7JVMFlag10is_defaultE12JVMFlagsEnum(i32 noundef 803) #11
  br i1 %13, label %14, label %41

14:                                               ; preds = %12
  %15 = load i64, ptr @CompilerThreadStackSize, align 8
  %16 = trunc i64 %15 to i32
  %17 = icmp eq i32 %16, 0
  %18 = load i64, ptr @VMThreadStackSize, align 8
  %19 = trunc i64 %18 to i32
  %.0 = select i1 %17, i32 %19, i32 %16
  %.not = icmp eq i32 %.0, 0
  br i1 %.not, label %41, label %20

20:                                               ; preds = %14
  %21 = shl nsw i32 %.0, 1
  %22 = sext i32 %21 to i64
  store i64 %22, ptr @CompilerThreadStackSize, align 8
  br label %41

23:                                               ; preds = %9
  %24 = tail call noundef zeroext i1 @_ZN7JVMFlag10is_defaultE12JVMFlagsEnum(i32 noundef 811) #11
  br i1 %24, label %25, label %28

25:                                               ; preds = %23
  %26 = load i64, ptr @ReservedCodeCacheSize, align 8
  %27 = tail call noundef i64 @llvm.umax.i64(i64 %26, i64 67108864)
  store i64 %27, ptr @ReservedCodeCacheSize, align 8
  br label %28

28:                                               ; preds = %25, %23
  %29 = tail call noundef zeroext i1 @_ZN7JVMFlag10is_defaultE12JVMFlagsEnum(i32 noundef 808) #11
  br i1 %29, label %30, label %33

30:                                               ; preds = %28
  %31 = load i64, ptr @InitialCodeCacheSize, align 8
  %32 = tail call noundef i64 @llvm.umax.i64(i64 %31, i64 16777216)
  store i64 %32, ptr @InitialCodeCacheSize, align 8
  br label %33

33:                                               ; preds = %30, %28
  %34 = tail call noundef zeroext i1 @_ZN7JVMFlag10is_defaultE12JVMFlagsEnum(i32 noundef 1201) #11
  br i1 %34, label %35, label %38

35:                                               ; preds = %33
  %36 = load i64, ptr @NewSizeThreadIncrease, align 8
  %37 = tail call noundef i64 @llvm.umax.i64(i64 %36, i64 4096)
  store i64 %37, ptr @NewSizeThreadIncrease, align 8
  br label %38

38:                                               ; preds = %35, %33
  %39 = tail call noundef zeroext i1 @_ZN7JVMFlag10is_defaultE12JVMFlagsEnum(i32 noundef 411) #11
  br i1 %39, label %40, label %41

40:                                               ; preds = %38
  store i64 100000, ptr @Tier3DelayOn, align 8
  br label %41

41:                                               ; preds = %14, %20, %12, %40, %38, %0
  ret void
}